; Function Attrs: nofree norecurse nosync nounwind memory(argmem: readwrite) uwtable
define internal void @_blend_softlight(ptr noundef readonly captures(none) %0, ptr noundef readonly captures(none) %1, ptr noundef writeonly captures(none) %2, ptr noalias noundef readonly captures(none) %3, i64 noundef %4, ptr noundef readonly captures(none) %5, ptr noundef readonly captures(none) %6) unnamed_addr #11 {
  %8 = alloca [4 x float], align 16
  %9 = alloca [4 x float], align 16
  %.not = icmp eq i64 %4, 0
  br i1 %.not, label %._crit_edge, label %.lr.ph

.lr.ph:                                           ; preds = %7
  %10 = getelementptr inbounds nuw i8, ptr %8, i64 4
  %11 = getelementptr inbounds nuw i8, ptr %9, i64 4
  %12 = getelementptr inbounds nuw i8, ptr %5, i64 4
  %13 = getelementptr inbounds nuw i8, ptr %6, i64 4
  %14 = getelementptr inbounds nuw i8, ptr %8, i64 8
  %15 = getelementptr inbounds nuw i8, ptr %9, i64 8
  %16 = getelementptr inbounds nuw i8, ptr %5, i64 8
  %17 = getelementptr inbounds nuw i8, ptr %6, i64 8
  br label %18

._crit_edge:                                      ; preds = %_blend_Lab_rescale.exit, %7
  ret void

18:                                               ; preds = %.lr.ph, %_blend_Lab_rescale.exit
  %.059 = phi i64 [ 0, %.lr.ph ], [ %107, %_blend_Lab_rescale.exit ]
  %.04958 = phi i64 [ 0, %.lr.ph ], [ %108, %_blend_Lab_rescale.exit ]
  %19 = getelementptr inbounds nuw float, ptr %3, i64 %.059
  %20 = load float, ptr %19, align 4, !tbaa !36
  call void @llvm.lifetime.start.p0(i64 16, ptr nonnull %8) #8
  call void @llvm.lifetime.start.p0(i64 16, ptr nonnull %9) #8
  %21 = getelementptr inbounds nuw float, ptr %0, i64 %.04958
  br label %22

22:                                               ; preds = %22, %18
  %.06.i = phi i64 [ 0, %18 ], [ %29, %22 ]
  %23 = getelementptr inbounds nuw float, ptr %21, i64 %.06.i
  %24 = load float, ptr %23, align 4, !tbaa !36
  %25 = getelementptr inbounds nuw [4 x float], ptr @__const._blend_Lab_scale.scale, i64 0, i64 %.06.i
  %26 = load float, ptr %25, align 4, !tbaa !36
  %27 = fmul reassoc nsz arcp contract afn float %26, %24
  %28 = getelementptr inbounds nuw float, ptr %8, i64 %.06.i
  store float %27, ptr %28, align 4, !tbaa !36
  %29 = add nuw nsw i64 %.06.i, 1
  %exitcond.not.i = icmp eq i64 %29, 4
  br i1 %exitcond.not.i, label %_blend_Lab_scale.exit, label %22

_blend_Lab_scale.exit:                            ; preds = %22
  %30 = getelementptr inbounds nuw float, ptr %1, i64 %.04958
  br label %31

31:                                               ; preds = %31, %_blend_Lab_scale.exit
  %.06.i53 = phi i64 [ 0, %_blend_Lab_scale.exit ], [ %38, %31 ]
  %32 = getelementptr inbounds nuw float, ptr %30, i64 %.06.i53
  %33 = load float, ptr %32, align 4, !tbaa !36
  %34 = getelementptr inbounds nuw [4 x float], ptr @__const._blend_Lab_scale.scale, i64 0, i64 %.06.i53
  %35 = load float, ptr %34, align 4, !tbaa !36
  %36 = fmul reassoc nsz arcp contract afn float %35, %33
  %37 = getelementptr inbounds nuw float, ptr %9, i64 %.06.i53
  store float %36, ptr %37, align 4, !tbaa !36
  %38 = add nuw nsw i64 %.06.i53, 1
  %exitcond.not.i54 = icmp eq i64 %38, 4
  br i1 %exitcond.not.i54, label %_blend_Lab_scale.exit55, label %31

_blend_Lab_scale.exit55:                          ; preds = %31
  %39 = fmul reassoc nsz arcp contract afn float %20, %20
  %40 = load float, ptr %6, align 4, !tbaa !36
  %41 = load float, ptr %5, align 4, !tbaa !36
  %42 = tail call reassoc nsz arcp contract afn float @llvm.fabs.f32(float %41)
  %43 = fadd reassoc nsz arcp contract afn float %42, %40
  %44 = load float, ptr %8, align 16, !tbaa !36
  %45 = fadd reassoc nsz arcp contract afn float %44, %42
  %46 = tail call reassoc nsz arcp contract afn float @llvm.maxnum.f32(float %45, float 0.000000e+00)
  %47 = tail call reassoc nsz arcp contract afn noundef float @llvm.minnum.f32(float %46, float %43)
  %48 = load float, ptr %9, align 16, !tbaa !36
  %49 = fadd reassoc nsz arcp contract afn float %48, %42
  %50 = tail call reassoc nsz arcp contract afn float @llvm.maxnum.f32(float %49, float 0.000000e+00)
  %51 = tail call reassoc nsz arcp contract afn noundef float @llvm.minnum.f32(float %50, float %43)
  %52 = fmul reassoc nsz arcp contract afn float %43, 5.000000e-01
  %53 = fsub reassoc nsz arcp contract afn float 1.000000e+00, %39
  %54 = fmul reassoc nsz arcp contract afn float %47, %53
  %55 = fcmp reassoc nsz arcp contract afn ogt float %51, %52
  br i1 %55, label %56, label %62

56:                                               ; preds = %_blend_Lab_scale.exit55
  %57 = fsub reassoc nsz arcp contract afn float %43, %47
  %58 = fmul reassoc nsz arcp contract afn float %43, 1.500000e+00
  %59 = fsub reassoc nsz arcp contract afn float %58, %51
  %60 = fmul reassoc nsz arcp contract afn float %59, %57
  %61 = fsub reassoc nsz arcp contract afn float %43, %60
  br label %65

62:                                               ; preds = %_blend_Lab_scale.exit55
  %63 = fadd reassoc nsz arcp contract afn float %51, %52
  %64 = fmul reassoc nsz arcp contract afn float %63, %47
  br label %65

65:                                               ; preds = %62, %56
  %66 = phi reassoc nsz arcp contract afn float [ %61, %56 ], [ %64, %62 ]
  %67 = fmul reassoc nsz arcp contract afn float %66, %39
  %68 = fadd reassoc nsz arcp contract afn float %67, %54
  %69 = tail call reassoc nsz arcp contract afn float @llvm.maxnum.f32(float %68, float 0.000000e+00)
  %70 = tail call reassoc nsz arcp contract afn noundef float @llvm.minnum.f32(float %69, float %43)
  %71 = fsub reassoc nsz arcp contract afn float %70, %42
  store float %71, ptr %9, align 16, !tbaa !36
  %72 = tail call reassoc nsz arcp contract afn float @llvm.maxnum.f32(float %44, float 0x3F847AE140000000)
  %73 = load float, ptr %10, align 4, !tbaa !36
  %74 = fmul reassoc nsz arcp contract afn float %73, %53
  %75 = load float, ptr %11, align 4, !tbaa !36
  %76 = fadd reassoc nsz arcp contract afn float %75, %73
  %77 = fmul reassoc nsz arcp contract afn float %71, %39
  %78 = fmul reassoc nsz arcp contract afn float %77, %76
  %79 = fdiv reassoc nsz arcp contract afn float %78, %72
  %80 = fadd reassoc nsz arcp contract afn float %79, %74
  %81 = load float, ptr %12, align 4, !tbaa !36
  %82 = load float, ptr %13, align 4, !tbaa !36
  %83 = tail call reassoc nsz arcp contract afn float @llvm.maxnum.f32(float %80, float %81)
  %84 = tail call reassoc nsz arcp contract afn noundef float @llvm.minnum.f32(float %83, float %82)
  store float %84, ptr %11, align 4, !tbaa !36
  %85 = load float, ptr %14, align 8, !tbaa !36
  %86 = fmul reassoc nsz arcp contract afn float %85, %53
  %87 = load float, ptr %15, align 8, !tbaa !36
  %88 = fadd reassoc nsz arcp contract afn float %87, %85
  %89 = fmul reassoc nsz arcp contract afn float %77, %88
  %90 = fdiv reassoc nsz arcp contract afn float %89, %72
  %91 = fadd reassoc nsz arcp contract afn float %90, %86
  %92 = load float, ptr %16, align 4, !tbaa !36
  %93 = load float, ptr %17, align 4, !tbaa !36
  %94 = tail call reassoc nsz arcp contract afn float @llvm.maxnum.f32(float %91, float %92)
  %95 = tail call reassoc nsz arcp contract afn noundef float @llvm.minnum.f32(float %94, float %93)
  store float %95, ptr %15, align 8, !tbaa !36
  %96 = getelementptr inbounds nuw float, ptr %2, i64 %.04958
  br label %97

97:                                               ; preds = %97, %65
  %.06.i56 = phi i64 [ 0, %65 ], [ %104, %97 ]
  %98 = getelementptr inbounds nuw float, ptr %9, i64 %.06.i56
  %99 = load float, ptr %98, align 4, !tbaa !36
  %100 = getelementptr inbounds nuw [4 x float], ptr @__const._blend_Lab_rescale.scale, i64 0, i64 %.06.i56
  %101 = load float, ptr %100, align 4, !tbaa !36
  %102 = fmul reassoc nsz arcp contract afn float %101, %99
  %103 = getelementptr inbounds nuw float, ptr %96, i64 %.06.i56
  store float %102, ptr %103, align 4, !tbaa !36
  %104 = add nuw nsw i64 %.06.i56, 1
  %exitcond.not.i57 = icmp eq i64 %104, 4
  br i1 %exitcond.not.i57, label %_blend_Lab_rescale.exit, label %97

_blend_Lab_rescale.exit:                          ; preds = %97
  %105 = or disjoint i64 %.04958, 3
  %106 = getelementptr inbounds nuw float, ptr %2, i64 %105
  store float %20, ptr %106, align 4, !tbaa !36
  call void @llvm.lifetime.end.p0(i64 16, ptr nonnull %9) #8
  call void @llvm.lifetime.end.p0(i64 16, ptr nonnull %8) #8
  %107 = add nuw i64 %.059, 1
  %108 = add i64 %.04958, 4
  %exitcond.not = icmp eq i64 %107, %4
  br i1 %exitcond.not, label %._crit_edge, label %18
}